target datalayout = "e-m:e-p270:32:32-p271:32:32-p272:64:64-i64:64-i128:128-f80:128-n8:16:32:64-S128"
target triple = "x86_64-pc-linux-gnu"

%struct.st_hash_type = type { ptr, ptr }
%struct.re_pattern_buffer = type { ptr, i32, i32, i32, i32, i32, i32, i32, i32, i32, i32, i32, i32, i32, ptr, ptr, ptr, ptr, i32, i32, i32, i32, i64, i64, i32, ptr, ptr, [256 x i8], ptr, ptr, i64, i64, i64, ptr }
%struct.st_table = type { i8, i8, i8, i32, ptr, i64, ptr, i64, i64, ptr }
%struct.INamesArg = type { ptr, ptr, ptr, i32, ptr }

@onig_st_init_strend_table_with_size.hashType = internal constant %struct.st_hash_type { ptr @str_end_cmp, ptr @str_end_hash }, align 8

; Function Attrs: nounwind sspstrong uwtable
define dso_local i32 @onig_foreach_name(ptr noundef %0, ptr noundef %1, ptr noundef %2) #0 {
  %4 = alloca ptr, align 8
  %5 = alloca ptr, align 8
  %6 = alloca ptr, align 8
  %7 = alloca %struct.INamesArg, align 8
  %8 = alloca ptr, align 8
  store ptr %0, ptr %4, align 8, !tbaa !26
  store ptr %1, ptr %5, align 8, !tbaa !12
  store ptr %2, ptr %6, align 8, !tbaa !12
  call void @llvm.lifetime.start.p0(i64 40, ptr %7) #13
  call void @llvm.lifetime.start.p0(i64 8, ptr %8) #13
  %9 = load ptr, ptr %4, align 8, !tbaa !26
  %10 = getelementptr inbounds nuw %struct.re_pattern_buffer, ptr %9, i32 0, i32 17
  %11 = load ptr, ptr %10, align 8, !tbaa !28
  store ptr %11, ptr %8, align 8, !tbaa !32
  %12 = getelementptr inbounds nuw %struct.INamesArg, ptr %7, i32 0, i32 3
  store i32 0, ptr %12, align 8, !tbaa !38
  %13 = load ptr, ptr %8, align 8, !tbaa !32
  %14 = icmp ne ptr %13, null
  br i1 %14, label %15, label %29

15:                                               ; preds = %3
  %16 = load ptr, ptr %5, align 8, !tbaa !12
  %17 = getelementptr inbounds nuw %struct.INamesArg, ptr %7, i32 0, i32 0
  store ptr %16, ptr %17, align 8, !tbaa !40
  %18 = load ptr, ptr %4, align 8, !tbaa !26
  %19 = getelementptr inbounds nuw %struct.INamesArg, ptr %7, i32 0, i32 1
  store ptr %18, ptr %19, align 8, !tbaa !41
  %20 = load ptr, ptr %6, align 8, !tbaa !12
  %21 = getelementptr inbounds nuw %struct.INamesArg, ptr %7, i32 0, i32 2
  store ptr %20, ptr %21, align 8, !tbaa !42
  %22 = load ptr, ptr %4, align 8, !tbaa !26
  %23 = getelementptr inbounds nuw %struct.re_pattern_buffer, ptr %22, i32 0, i32 15
  %24 = load ptr, ptr %23, align 8, !tbaa !43
  %25 = getelementptr inbounds nuw %struct.INamesArg, ptr %7, i32 0, i32 4
  store ptr %24, ptr %25, align 8, !tbaa !44
  %26 = load ptr, ptr %8, align 8, !tbaa !32
  %27 = ptrtoint ptr %7 to i64
  %28 = call i32 @rb_st_foreach(ptr noundef %26, ptr noundef @i_names, i64 noundef %27)
  br label %29

29:                                               ; preds = %15, %3
  %30 = getelementptr inbounds nuw %struct.INamesArg, ptr %7, i32 0, i32 3
  %31 = load i32, ptr %30, align 8, !tbaa !38
  call void @llvm.lifetime.end.p0(i64 8, ptr %8) #13
  call void @llvm.lifetime.end.p0(i64 40, ptr %7) #13
  ret i32 %31
}

; Function Attrs: nounwind sspstrong uwtable
define dso_local ptr @onig_st_init_strend_table_with_size(i64 noundef %0) #0 {
  %2 = alloca i64, align 8
  store i64 %0, ptr %2, align 8, !tbaa !15
  %3 = load i64, ptr %2, align 8, !tbaa !15
  %4 = call ptr @rb_st_init_table_with_size(ptr noundef @onig_st_init_strend_table_with_size.hashType, i64 noundef %3)
  ret ptr %4
}

; Function Attrs: nounwind sspstrong uwtable
define dso_local i32 @onig_number_of_names(ptr noundef %0) #0 {
  %2 = alloca i32, align 4
  %3 = alloca ptr, align 8
  %4 = alloca ptr, align 8
  %5 = alloca i32, align 4
  store ptr %0, ptr %3, align 8, !tbaa !26
  call void @llvm.lifetime.start.p0(i64 8, ptr %4) #13
  %6 = load ptr, ptr %3, align 8, !tbaa !26
  %7 = getelementptr inbounds nuw %struct.re_pattern_buffer, ptr %6, i32 0, i32 17
  %8 = load ptr, ptr %7, align 8, !tbaa !28
  store ptr %8, ptr %4, align 8, !tbaa !32
  %9 = load ptr, ptr %4, align 8, !tbaa !32
  %10 = icmp ne ptr %9, null
  br i1 %10, label %11, label %16

11:                                               ; preds = %1
  %12 = load ptr, ptr %4, align 8, !tbaa !32
  %13 = getelementptr inbounds nuw %struct.st_table, ptr %12, i32 0, i32 5
  %14 = load i64, ptr %13, align 8, !tbaa !34
  %15 = trunc i64 %14 to i32
  store i32 %15, ptr %2, align 4
  store i32 1, ptr %5, align 4
  br label %17

16:                                               ; preds = %1
  store i32 0, ptr %2, align 4
  store i32 1, ptr %5, align 4
  br label %17

17:                                               ; preds = %16, %11
  call void @llvm.lifetime.end.p0(i64 8, ptr %4) #13
  %18 = load i32, ptr %2, align 4
  ret i32 %18
}

; Function Attrs: nounwind sspstrong uwtable
define dso_local i32 @onig_names_copy(ptr noundef %0, ptr noundef %1) #0 {
  %3 = alloca i32, align 4
  %4 = alloca ptr, align 8
  %5 = alloca ptr, align 8
  %6 = alloca ptr, align 8
  %7 = alloca ptr, align 8
  %8 = alloca i32, align 4
  store ptr %0, ptr %4, align 8, !tbaa !26
  store ptr %1, ptr %5, align 8, !tbaa !26
  call void @llvm.lifetime.start.p0(i64 8, ptr %6) #13
  %9 = load ptr, ptr %5, align 8, !tbaa !26
  %10 = getelementptr inbounds nuw %struct.re_pattern_buffer, ptr %9, i32 0, i32 17
  %11 = load ptr, ptr %10, align 8, !tbaa !28
  store ptr %11, ptr %6, align 8, !tbaa !32
  %12 = load ptr, ptr %6, align 8, !tbaa !32
  %13 = icmp ne ptr %12, null
  br i1 %13, label %14, label %36

14:                                               ; preds = %2
  call void @llvm.lifetime.start.p0(i64 8, ptr %7) #13
  %15 = load ptr, ptr %5, align 8, !tbaa !26
  %16 = call i32 @onig_number_of_names(ptr noundef %15)
  %17 = sext i32 %16 to i64
  %18 = call ptr @onig_st_init_strend_table_with_size(i64 noundef %17)
  store ptr %18, ptr %7, align 8, !tbaa !32
  %19 = load ptr, ptr %7, align 8, !tbaa !32
  %20 = icmp eq ptr %19, null
  br i1 %20, label %21, label %22

21:                                               ; preds = %14
  store i32 -5, ptr %3, align 4
  store i32 1, ptr %8, align 4
  br label %33

22:                                               ; preds = %14
  %23 = load ptr, ptr %5, align 8, !tbaa !26
  %24 = load ptr, ptr %7, align 8, !tbaa !32
  %25 = call i32 @onig_foreach_name(ptr noundef %23, ptr noundef @copy_named_captures_iter, ptr noundef %24)
  %26 = icmp ne i32 %25, 0
  br i1 %26, label %27, label %29

27:                                               ; preds = %22
  %28 = load ptr, ptr %7, align 8, !tbaa !32
  call void @rb_st_free_table(ptr noundef %28)
  store i32 -5, ptr %3, align 4
  store i32 1, ptr %8, align 4
  br label %33

29:                                               ; preds = %22
  %30 = load ptr, ptr %7, align 8, !tbaa !32
  %31 = load ptr, ptr %4, align 8, !tbaa !26
  %32 = getelementptr inbounds nuw %struct.re_pattern_buffer, ptr %31, i32 0, i32 17
  store ptr %30, ptr %32, align 8, !tbaa !28
  store i32 0, ptr %8, align 4
  br label %33

33:                                               ; preds = %29, %27, %21
  call void @llvm.lifetime.end.p0(i64 8, ptr %7) #13
  %34 = load i32, ptr %8, align 4
  switch i32 %34, label %37 [
    i32 0, label %35
  ]

35:                                               ; preds = %33
  br label %36

36:                                               ; preds = %35, %2
  store i32 0, ptr %3, align 4
  store i32 1, ptr %8, align 4
  br label %37

37:                                               ; preds = %36, %33
  call void @llvm.lifetime.end.p0(i64 8, ptr %6) #13
  %38 = load i32, ptr %3, align 4
  ret i32 %38
}