; Function Attrs: nounwind sspstrong uwtable
define dso_local range(i32 -5, 1) i32 @onig_names_copy(ptr noundef writeonly captures(none) %0, ptr noundef %1) local_unnamed_addr #5 {
  %3 = alloca %struct.INamesArg, align 8
  %4 = getelementptr inbounds nuw i8, ptr %1, i64 88
  %5 = load ptr, ptr %4, align 8, !tbaa !21
  %.not = icmp eq ptr %5, null
  br i1 %.not, label %.critedge, label %onig_number_of_names.exit

onig_number_of_names.exit:                        ; preds = %2
  %6 = getelementptr inbounds nuw i8, ptr %5, i64 16
  %7 = load i64, ptr %6, align 8, !tbaa !27
  %sext = shl i64 %7, 32
  %8 = ashr exact i64 %sext, 32
  %9 = tail call ptr @rb_st_init_table_with_size(ptr noundef nonnull @onig_st_init_strend_table_with_size.hashType, i64 noundef %8) #25
  %10 = icmp eq ptr %9, null
  br i1 %10, label %.critedge, label %11

11:                                               ; preds = %onig_number_of_names.exit
  call void @llvm.lifetime.start.p0(i64 40, ptr nonnull %3) #25
  %12 = load ptr, ptr %4, align 8, !tbaa !21
  %13 = getelementptr inbounds nuw i8, ptr %3, i64 24
  store i32 0, ptr %13, align 8, !tbaa !32
  %.not.i13 = icmp eq ptr %12, null
  br i1 %.not.i13, label %onig_foreach_name.exit.thread, label %onig_foreach_name.exit

onig_foreach_name.exit.thread:                    ; preds = %11
  call void @llvm.lifetime.end.p0(i64 40, ptr nonnull %3) #25
  br label %22

onig_foreach_name.exit:                           ; preds = %11
  store ptr @copy_named_captures_iter, ptr %3, align 8, !tbaa !34
  %14 = getelementptr inbounds nuw i8, ptr %3, i64 8
  store ptr %1, ptr %14, align 8, !tbaa !35
  %15 = getelementptr inbounds nuw i8, ptr %3, i64 16
  store ptr %9, ptr %15, align 8, !tbaa !36
  %16 = getelementptr inbounds nuw i8, ptr %1, i64 72
  %17 = load ptr, ptr %16, align 8, !tbaa !37
  %18 = getelementptr inbounds nuw i8, ptr %3, i64 32
  store ptr %17, ptr %18, align 8, !tbaa !38
  %19 = ptrtoint ptr %3 to i64
  %20 = call i32 @rb_st_foreach(ptr noundef nonnull %12, ptr noundef nonnull @i_names, i64 noundef %19) #25
  %.pre.i = load i32, ptr %13, align 8, !tbaa !32
  call void @llvm.lifetime.end.p0(i64 40, ptr nonnull %3) #25
  %.not12 = icmp eq i32 %.pre.i, 0
  br i1 %.not12, label %22, label %21

21:                                               ; preds = %onig_foreach_name.exit
  call void @rb_st_free_table(ptr noundef nonnull %9) #25
  br label %.critedge

22:                                               ; preds = %onig_foreach_name.exit.thread, %onig_foreach_name.exit
  %23 = getelementptr inbounds nuw i8, ptr %0, i64 88
  store ptr %9, ptr %23, align 8, !tbaa !21
  br label %.critedge

.critedge:                                        ; preds = %21, %onig_number_of_names.exit, %2, %22
  %.1 = phi i32 [ 0, %22 ], [ 0, %2 ], [ -5, %onig_number_of_names.exit ], [ -5, %21 ]
  ret i32 %.1
}